target datalayout = "e-m:e-p270:32:32-p271:32:32-p272:64:64-i64:64-i128:128-f80:128-n8:16:32:64-S128"
target triple = "x86_64-pc-linux-gnu"

%struct._zend_compiler_globals = type { %struct._zend_stack, ptr, ptr, i32, ptr, ptr, ptr, ptr, i8, i8, i8, i8, i8, %struct._zend_llist, ptr, i8, i8, i8, i8, ptr, i32, i32, %struct._zend_oparray_context, %struct._zend_file_context, ptr, %struct._zend_array, ptr, i64, i8, i8, i8, ptr, ptr, %struct._zend_stack, ptr, i32, ptr, ptr, i64, i64, ptr, ptr, ptr, ptr, i32, ptr, i32, %struct._zend_stack }
%struct._zend_llist = type { ptr, ptr, i64, i64, ptr, i8, ptr }
%struct._zend_oparray_context = type { ptr, ptr, i32, i32, i32, i32, i32, i32, i32, ptr, ptr, ptr, i32, i8 }
%struct._zend_file_context = type { %struct._zend_declarables, ptr, i8, i8, ptr, ptr, ptr, %struct._zend_array }
%struct._zend_declarables = type { i64 }
%struct._zend_array = type { %struct._zend_refcounted_h, %union.anon.1, i32, %union.anon.2, i32, i32, i32, i32, i64, ptr }
%struct._zend_refcounted_h = type { i32, %union.anon.0 }
%union.anon.0 = type { i32 }
%union.anon.1 = type { i32 }
%union.anon.2 = type { ptr }
%struct._zend_stack = type { i32, i32, i32, ptr }
%struct._zval_struct = type { %union._zend_value, %union.anon.9, %union.anon.12 }
%union._zend_value = type { i64 }
%union.anon.9 = type { i32 }
%union.anon.12 = type { i32 }
%struct._zend_string = type { %struct._zend_refcounted_h, i64, i64, [1 x i8] }
%struct._zend_class_entry = type { i8, ptr, %union.anon, i32, i32, i32, i32, ptr, ptr, ptr, %struct._zend_array, %struct._zend_array, %struct._zend_array, ptr, ptr, ptr, ptr, ptr, ptr, ptr, ptr, ptr, ptr, ptr, ptr, ptr, ptr, ptr, ptr, ptr, ptr, ptr, %union.anon.3, ptr, ptr, ptr, ptr, i32, i32, i32, i32, %union.anon.4, ptr, ptr, ptr, ptr, i32, ptr, ptr, %union.anon.5 }
%union.anon = type { ptr }
%union.anon.3 = type { ptr }
%union.anon.4 = type { ptr }
%union.anon.5 = type { %struct.anon.6 }
%struct.anon.6 = type { ptr, i32, i32 }

@compiler_globals = external global %struct._zend_compiler_globals, align 8
@zend_known_strings = external global ptr, align 8

; Function Attrs: alwaysinline nounwind uwtable
define internal ptr @zend_hash_add_ptr(ptr noundef %0, ptr noundef %1, ptr noundef %2) #3 {
  %4 = alloca ptr, align 8
  %5 = alloca ptr, align 8
  %6 = alloca ptr, align 8
  %7 = alloca ptr, align 8
  %8 = alloca %struct._zval_struct, align 8
  %9 = alloca ptr, align 8
  %10 = alloca i32, align 4
  store ptr %0, ptr %5, align 8, !tbaa !47
  store ptr %1, ptr %6, align 8, !tbaa !19
  store ptr %2, ptr %7, align 8, !tbaa !16
  call void @llvm.lifetime.start.p0(i64 16, ptr %8) #19
  call void @llvm.lifetime.start.p0(i64 8, ptr %9) #19
  br label %11

11:                                               ; preds = %3
  %12 = load ptr, ptr %7, align 8, !tbaa !16
  %13 = getelementptr inbounds nuw %struct._zval_struct, ptr %8, i32 0, i32 0
  store ptr %12, ptr %13, align 8, !tbaa !46
  %14 = getelementptr inbounds nuw %struct._zval_struct, ptr %8, i32 0, i32 1
  store i32 13, ptr %14, align 8, !tbaa !46
  br label %15

15:                                               ; preds = %11
  br label %16

16:                                               ; preds = %15
  %17 = load ptr, ptr %5, align 8, !tbaa !47
  %18 = load ptr, ptr %6, align 8, !tbaa !19
  %19 = call ptr @zend_hash_add(ptr noundef %17, ptr noundef %18, ptr noundef %8)
  store ptr %19, ptr %9, align 8, !tbaa !51
  %20 = load ptr, ptr %9, align 8, !tbaa !51
  %21 = icmp ne ptr %20, null
  br i1 %21, label %22, label %30

22:                                               ; preds = %16
  %23 = load ptr, ptr %9, align 8, !tbaa !51
  %24 = getelementptr inbounds nuw %struct._zval_struct, ptr %23, i32 0, i32 0
  %25 = load ptr, ptr %24, align 8, !tbaa !46
  %26 = icmp ne ptr %25, null
  call void @llvm.assume(i1 %26)
  %27 = load ptr, ptr %9, align 8, !tbaa !51
  %28 = getelementptr inbounds nuw %struct._zval_struct, ptr %27, i32 0, i32 0
  %29 = load ptr, ptr %28, align 8, !tbaa !46
  store ptr %29, ptr %4, align 8
  store i32 1, ptr %10, align 4
  br label %31

30:                                               ; preds = %16
  store ptr null, ptr %4, align 8
  store i32 1, ptr %10, align 4
  br label %31

31:                                               ; preds = %30, %22
  call void @llvm.lifetime.end.p0(i64 8, ptr %9) #19
  call void @llvm.lifetime.end.p0(i64 16, ptr %8) #19
  %32 = load ptr, ptr %4, align 8
  ret ptr %32
}

; Function Attrs: nounwind uwtable
define internal void @track_class_dependency(ptr noundef %0, ptr noundef %1) #0 {
  %3 = alloca ptr, align 8
  %4 = alloca ptr, align 8
  %5 = alloca ptr, align 8
  %6 = alloca i32, align 4
  store ptr %0, ptr %3, align 8, !tbaa !8
  store ptr %1, ptr %4, align 8, !tbaa !19
  call void @llvm.lifetime.start.p0(i64 8, ptr %5) #19
  %7 = load ptr, ptr %4, align 8, !tbaa !19
  %8 = icmp ne ptr %7, null
  call void @llvm.assume(i1 %8)
  %9 = load ptr, ptr getelementptr inbounds nuw (%struct._zend_compiler_globals, ptr @compiler_globals, i32 0, i32 43), align 8, !tbaa !177
  %10 = icmp ne ptr %9, null
  br i1 %10, label %11, label %15

11:                                               ; preds = %2
  %12 = load ptr, ptr %3, align 8, !tbaa !8
  %13 = load ptr, ptr getelementptr inbounds nuw (%struct._zend_compiler_globals, ptr @compiler_globals, i32 0, i32 43), align 8, !tbaa !177
  %14 = icmp eq ptr %12, %13
  br i1 %14, label %15, label %16

15:                                               ; preds = %11, %2
  store i32 1, ptr %6, align 4
  br label %122

16:                                               ; preds = %11
  %17 = load ptr, ptr %4, align 8, !tbaa !19
  %18 = getelementptr inbounds nuw %struct._zend_string, ptr %17, i32 0, i32 2
  %19 = load i64, ptr %18, align 8, !tbaa !23
  %20 = load ptr, ptr @zend_known_strings, align 8, !tbaa !209
  %21 = getelementptr inbounds ptr, ptr %20, i64 61
  %22 = load ptr, ptr %21, align 8, !tbaa !19
  %23 = getelementptr inbounds nuw %struct._zend_string, ptr %22, i32 0, i32 2
  %24 = load i64, ptr %23, align 8, !tbaa !23
  %25 = icmp eq i64 %19, %24
  br i1 %25, label %26, label %45

26:                                               ; preds = %16
  %27 = load ptr, ptr %4, align 8, !tbaa !19
  %28 = getelementptr inbounds nuw %struct._zend_string, ptr %27, i32 0, i32 3
  %29 = getelementptr inbounds [1 x i8], ptr %28, i64 0, i64 0
  %30 = load ptr, ptr %4, align 8, !tbaa !19
  %31 = getelementptr inbounds nuw %struct._zend_string, ptr %30, i32 0, i32 2
  %32 = load i64, ptr %31, align 8, !tbaa !23
  %33 = load ptr, ptr @zend_known_strings, align 8, !tbaa !209
  %34 = getelementptr inbounds ptr, ptr %33, i64 61
  %35 = load ptr, ptr %34, align 8, !tbaa !19
  %36 = getelementptr inbounds nuw %struct._zend_string, ptr %35, i32 0, i32 3
  %37 = getelementptr inbounds [1 x i8], ptr %36, i64 0, i64 0
  %38 = load ptr, ptr @zend_known_strings, align 8, !tbaa !209
  %39 = getelementptr inbounds ptr, ptr %38, i64 61
  %40 = load ptr, ptr %39, align 8, !tbaa !19
  %41 = getelementptr inbounds nuw %struct._zend_string, ptr %40, i32 0, i32 2
  %42 = load i64, ptr %41, align 8, !tbaa !23
  %43 = call i32 @zend_binary_strcasecmp(ptr noundef %29, i64 noundef %32, ptr noundef %37, i64 noundef %42)
  %44 = icmp ne i32 %43, 0
  br i1 %44, label %45, label %74

45:                                               ; preds = %26, %16
  %46 = load ptr, ptr %4, align 8, !tbaa !19
  %47 = getelementptr inbounds nuw %struct._zend_string, ptr %46, i32 0, i32 2
  %48 = load i64, ptr %47, align 8, !tbaa !23
  %49 = load ptr, ptr @zend_known_strings, align 8, !tbaa !209
  %50 = getelementptr inbounds ptr, ptr %49, i64 62
  %51 = load ptr, ptr %50, align 8, !tbaa !19
  %52 = getelementptr inbounds nuw %struct._zend_string, ptr %51, i32 0, i32 2
  %53 = load i64, ptr %52, align 8, !tbaa !23
  %54 = icmp eq i64 %48, %53
  br i1 %54, label %55, label %75

55:                                               ; preds = %45
  %56 = load ptr, ptr %4, align 8, !tbaa !19
  %57 = getelementptr inbounds nuw %struct._zend_string, ptr %56, i32 0, i32 3
  %58 = getelementptr inbounds [1 x i8], ptr %57, i64 0, i64 0
  %59 = load ptr, ptr %4, align 8, !tbaa !19
  %60 = getelementptr inbounds nuw %struct._zend_string, ptr %59, i32 0, i32 2
  %61 = load i64, ptr %60, align 8, !tbaa !23
  %62 = load ptr, ptr @zend_known_strings, align 8, !tbaa !209
  %63 = getelementptr inbounds ptr, ptr %62, i64 62
  %64 = load ptr, ptr %63, align 8, !tbaa !19
  %65 = getelementptr inbounds nuw %struct._zend_string, ptr %64, i32 0, i32 3
  %66 = getelementptr inbounds [1 x i8], ptr %65, i64 0, i64 0
  %67 = load ptr, ptr @zend_known_strings, align 8, !tbaa !209
  %68 = getelementptr inbounds ptr, ptr %67, i64 62
  %69 = load ptr, ptr %68, align 8, !tbaa !19
  %70 = getelementptr inbounds nuw %struct._zend_string, ptr %69, i32 0, i32 2
  %71 = load i64, ptr %70, align 8, !tbaa !23
  %72 = call i32 @zend_binary_strcasecmp(ptr noundef %58, i64 noundef %61, ptr noundef %66, i64 noundef %71)
  %73 = icmp ne i32 %72, 0
  br i1 %73, label %75, label %74

74:                                               ; preds = %55, %26
  store i32 1, ptr %6, align 4
  br label %122

75:                                               ; preds = %55, %45
  br label %76

76:                                               ; preds = %75
  %77 = load ptr, ptr %3, align 8, !tbaa !8
  %78 = getelementptr inbounds nuw %struct._zend_class_entry, ptr %77, i32 0, i32 0
  %79 = load i8, ptr %78, align 8, !tbaa !44
  %80 = sext i8 %79 to i32
  %81 = icmp eq i32 %80, 1
  br i1 %81, label %82, label %83

82:                                               ; preds = %76
  store i32 1, ptr %6, align 4
  br label %122

83:                                               ; preds = %76
  %84 = load ptr, ptr getelementptr inbounds nuw (%struct._zend_compiler_globals, ptr @compiler_globals, i32 0, i32 43), align 8, !tbaa !177
  %85 = getelementptr inbounds nuw %struct._zend_class_entry, ptr %84, i32 0, i32 14
  %86 = load ptr, ptr %85, align 8, !tbaa !179
  store ptr %86, ptr %5, align 8, !tbaa !47
  %87 = load ptr, ptr %3, align 8, !tbaa !8
  %88 = getelementptr inbounds nuw %struct._zend_class_entry, ptr %87, i32 0, i32 4
  %89 = load i32, ptr %88, align 4, !tbaa !80
  %90 = and i32 %89, 128
  %91 = icmp ne i32 %90, 0
  br i1 %91, label %108, label %92

92:                                               ; preds = %83
  %93 = load ptr, ptr %5, align 8, !tbaa !47
  %94 = icmp ne ptr %93, null
  br i1 %94, label %95, label %103

95:                                               ; preds = %92
  %96 = load ptr, ptr %5, align 8, !tbaa !47
  call void @zend_hash_destroy(ptr noundef %96)
  br label %97

97:                                               ; preds = %95
  %98 = load ptr, ptr %5, align 8, !tbaa !47
  call void @_efree_56(ptr noundef %98)
  br label %99

99:                                               ; preds = %97
  br label %100

100:                                              ; preds = %99
  %101 = load ptr, ptr getelementptr inbounds nuw (%struct._zend_compiler_globals, ptr @compiler_globals, i32 0, i32 43), align 8, !tbaa !177
  %102 = getelementptr inbounds nuw %struct._zend_class_entry, ptr %101, i32 0, i32 14
  store ptr null, ptr %102, align 8, !tbaa !179
  br label %103

103:                                              ; preds = %100, %92
  %104 = load ptr, ptr getelementptr inbounds nuw (%struct._zend_compiler_globals, ptr @compiler_globals, i32 0, i32 43), align 8, !tbaa !177
  %105 = getelementptr inbounds nuw %struct._zend_class_entry, ptr %104, i32 0, i32 4
  %106 = load i32, ptr %105, align 4, !tbaa !80
  %107 = and i32 %106, -8388609
  store i32 %107, ptr %105, align 4, !tbaa !80
  store ptr null, ptr getelementptr inbounds nuw (%struct._zend_compiler_globals, ptr @compiler_globals, i32 0, i32 43), align 8, !tbaa !177
  store i32 1, ptr %6, align 4
  br label %122

108:                                              ; preds = %83
  %109 = load ptr, ptr %5, align 8, !tbaa !47
  %110 = icmp ne ptr %109, null
  br i1 %110, label %117, label %111

111:                                              ; preds = %108
  %112 = call noalias ptr @_emalloc_56()
  store ptr %112, ptr %5, align 8, !tbaa !47
  %113 = load ptr, ptr %5, align 8, !tbaa !47
  call void @_zend_hash_init(ptr noundef %113, i32 noundef 0, ptr noundef null, i1 noundef zeroext false)
  %114 = load ptr, ptr %5, align 8, !tbaa !47
  %115 = load ptr, ptr getelementptr inbounds nuw (%struct._zend_compiler_globals, ptr @compiler_globals, i32 0, i32 43), align 8, !tbaa !177
  %116 = getelementptr inbounds nuw %struct._zend_class_entry, ptr %115, i32 0, i32 14
  store ptr %114, ptr %116, align 8, !tbaa !179
  br label %117

117:                                              ; preds = %111, %108
  %118 = load ptr, ptr %5, align 8, !tbaa !47
  %119 = load ptr, ptr %4, align 8, !tbaa !19
  %120 = load ptr, ptr %3, align 8, !tbaa !8
  %121 = call ptr @zend_hash_add_ptr(ptr noundef %118, ptr noundef %119, ptr noundef %120)
  store i32 0, ptr %6, align 4
  br label %122

122:                                              ; preds = %117, %103, %82, %74, %15
  call void @llvm.lifetime.end.p0(i64 8, ptr %5) #19
  %123 = load i32, ptr %6, align 4
  switch i32 %123, label %125 [
    i32 0, label %124
    i32 1, label %124
  ]

124:                                              ; preds = %122, %122
  ret void

125:                                              ; preds = %122
  unreachable
}