; Function Attrs: nounwind uwtable
define internal fastcc void @track_class_dependency(ptr noundef nonnull %0, ptr noundef %1) unnamed_addr #2 {
  %3 = alloca %struct._zval_struct, align 8
  %4 = icmp ne ptr %1, null
  tail call void @llvm.assume(i1 %4)
  %5 = load ptr, ptr getelementptr inbounds nuw (i8, ptr @compiler_globals, i64 560), align 8, !tbaa !163
  %.not = icmp eq ptr %5, null
  %6 = icmp eq ptr %0, %5
  %or.cond = or i1 %.not, %6
  br i1 %or.cond, label %58, label %7

7:                                                ; preds = %2
  %8 = getelementptr inbounds nuw i8, ptr %1, i64 16
  %9 = load i64, ptr %8, align 8, !tbaa !13
  %10 = load ptr, ptr @zend_known_strings, align 8, !tbaa !17
  %11 = getelementptr inbounds nuw i8, ptr %10, i64 488
  %12 = load ptr, ptr %11, align 8, !tbaa !19
  %13 = getelementptr inbounds nuw i8, ptr %12, i64 16
  %14 = load i64, ptr %13, align 8, !tbaa !13
  %15 = icmp eq i64 %9, %14
  br i1 %15, label %16, label %20

16:                                               ; preds = %7
  %17 = getelementptr inbounds nuw i8, ptr %1, i64 24
  %18 = getelementptr inbounds nuw i8, ptr %12, i64 24
  %19 = tail call i32 @zend_binary_strcasecmp(ptr noundef nonnull %17, i64 noundef %9, ptr noundef nonnull %18, i64 noundef %9) #17
  %.not26 = icmp eq i32 %19, 0
  br i1 %.not26, label %58, label %._crit_edge

._crit_edge:                                      ; preds = %16
  %.pre = load i64, ptr %8, align 8, !tbaa !13
  %.pre31 = load ptr, ptr @zend_known_strings, align 8, !tbaa !17
  br label %20

20:                                               ; preds = %._crit_edge, %7
  %21 = phi ptr [ %.pre31, %._crit_edge ], [ %10, %7 ]
  %22 = phi i64 [ %.pre, %._crit_edge ], [ %9, %7 ]
  %23 = getelementptr inbounds nuw i8, ptr %21, i64 496
  %24 = load ptr, ptr %23, align 8, !tbaa !19
  %25 = getelementptr inbounds nuw i8, ptr %24, i64 16
  %26 = load i64, ptr %25, align 8, !tbaa !13
  %27 = icmp eq i64 %22, %26
  br i1 %27, label %28, label %32

28:                                               ; preds = %20
  %29 = getelementptr inbounds nuw i8, ptr %1, i64 24
  %30 = getelementptr inbounds nuw i8, ptr %24, i64 24
  %31 = tail call i32 @zend_binary_strcasecmp(ptr noundef nonnull %29, i64 noundef %22, ptr noundef nonnull %30, i64 noundef %22) #17
  %.not27 = icmp eq i32 %31, 0
  br i1 %.not27, label %58, label %32

32:                                               ; preds = %20, %28
  %33 = load i8, ptr %0, align 8, !tbaa !86
  %34 = icmp eq i8 %33, 1
  br i1 %34, label %58, label %35

35:                                               ; preds = %32
  %36 = load ptr, ptr getelementptr inbounds nuw (i8, ptr @compiler_globals, i64 560), align 8, !tbaa !163
  %37 = getelementptr inbounds nuw i8, ptr %36, i64 240
  %38 = load ptr, ptr %37, align 8, !tbaa !192
  %39 = getelementptr inbounds nuw i8, ptr %0, i64 28
  %40 = load i32, ptr %39, align 4, !tbaa !22
  %41 = and i32 %40, 128
  %.not28 = icmp eq i32 %41, 0
  %.not29 = icmp eq ptr %38, null
  br i1 %.not28, label %42, label %51

42:                                               ; preds = %35
  br i1 %.not29, label %46, label %43

43:                                               ; preds = %42
  tail call void @zend_hash_destroy(ptr noundef nonnull %38) #17
  tail call void @_efree_56(ptr noundef nonnull %38) #17
  %44 = load ptr, ptr getelementptr inbounds nuw (i8, ptr @compiler_globals, i64 560), align 8, !tbaa !163
  %45 = getelementptr inbounds nuw i8, ptr %44, i64 240
  store ptr null, ptr %45, align 8, !tbaa !192
  br label %46

46:                                               ; preds = %43, %42
  %47 = phi ptr [ %44, %43 ], [ %36, %42 ]
  %48 = getelementptr inbounds nuw i8, ptr %47, i64 28
  %49 = load i32, ptr %48, align 4, !tbaa !22
  %50 = and i32 %49, -8388609
  store i32 %50, ptr %48, align 4, !tbaa !22
  store ptr null, ptr getelementptr inbounds nuw (i8, ptr @compiler_globals, i64 560), align 8, !tbaa !163
  br label %58

51:                                               ; preds = %35
  br i1 %.not29, label %52, label %zend_hash_add_ptr.exit

52:                                               ; preds = %51
  %53 = tail call noalias ptr @_emalloc_56() #17
  tail call void @_zend_hash_init(ptr noundef %53, i32 noundef 0, ptr noundef null, i1 noundef zeroext false) #17
  %54 = load ptr, ptr getelementptr inbounds nuw (i8, ptr @compiler_globals, i64 560), align 8, !tbaa !163
  %55 = getelementptr inbounds nuw i8, ptr %54, i64 240
  store ptr %53, ptr %55, align 8, !tbaa !192
  br label %zend_hash_add_ptr.exit

zend_hash_add_ptr.exit:                           ; preds = %52, %51
  %.0 = phi ptr [ %38, %51 ], [ %53, %52 ]
  call void @llvm.lifetime.start.p0(i64 16, ptr nonnull %3) #17
  store ptr %0, ptr %3, align 8, !tbaa !21
  %56 = getelementptr inbounds nuw i8, ptr %3, i64 8
  store i32 13, ptr %56, align 8, !tbaa !21
  %57 = call ptr @zend_hash_add(ptr noundef %.0, ptr noundef nonnull %1, ptr noundef nonnull %3) #17
  call void @llvm.lifetime.end.p0(i64 16, ptr nonnull %3) #17
  br label %58

58:                                               ; preds = %32, %16, %28, %2, %zend_hash_add_ptr.exit, %46
  ret void
}